target datalayout = "e-m:e-p270:32:32-p271:32:32-p272:64:64-i64:64-i128:128-f80:128-n8:16:32:64-S128"
target triple = "x86_64-pc-linux-gnu"

%struct.TpxFileHeader = type <{ i8, i8, i8, i8, i8, i8, [2 x i8], i32, i32, float, i32, i64, i32, i32, i8, [7 x i8] }>
%"class.gmx::ISerializer" = type { ptr }
%"class.std::vector.71" = type { %"struct.std::_Vector_base.72" }
%"struct.std::_Vector_base.72" = type { %"struct.std::_Vector_base<char, std::allocator<char>>::_Vector_impl" }
%"struct.std::_Vector_base<char, std::allocator<char>>::_Vector_impl" = type { %"struct.std::_Vector_base<char, std::allocator<char>>::_Vector_impl_data" }
%"struct.std::_Vector_base<char, std::allocator<char>>::_Vector_impl_data" = type { ptr, ptr, ptr }
%"class.gmx::InMemoryDeserializer" = type { %"class.gmx::ISerializer", %"class.std::unique_ptr.329" }
%"class.std::unique_ptr.329" = type { %"struct.std::__uniq_ptr_data.330" }
%"struct.std::__uniq_ptr_data.330" = type { %"class.std::__uniq_ptr_impl.331" }
%"class.std::__uniq_ptr_impl.331" = type { %"class.std::tuple.332" }
%"class.std::tuple.332" = type { %"struct.std::_Tuple_impl.333" }
%"struct.std::_Tuple_impl.333" = type { %"struct.std::_Head_base.336" }
%"struct.std::_Head_base.336" = type { ptr }
%"class.gmx::ArrayRef.337" = type { %"struct.gmx::ArrayRefIter.338", %"struct.gmx::ArrayRefIter.338" }
%"struct.gmx::ArrayRefIter.338" = type { ptr }
%struct.PartialDeserializedTprFile = type <{ %struct.TpxFileHeader, %"class.std::vector.71", i32, [4 x i8] }>

; Function Attrs: mustprogress nounwind uwtable
define linkonce_odr noundef ptr @_ZNKSt6vectorIcSaIcEE11_M_data_ptrIcEEPT_S4_(ptr noundef nonnull align 8 dereferenceable(24) %0, ptr noundef %1) #3 comdat align 2 {
  %3 = alloca ptr, align 8
  %4 = alloca ptr, align 8
  store ptr %0, ptr %3, align 8
  store ptr %1, ptr %4, align 8
  %5 = load ptr, ptr %4, align 8
  ret ptr %5
}

; Function Attrs: mustprogress nounwind uwtable
define linkonce_odr noundef i64 @_ZNKSt6vectorIcSaIcEE4sizeEv(ptr noundef nonnull align 8 dereferenceable(24) %0) #3 comdat align 2 {
  %2 = alloca ptr, align 8
  store ptr %0, ptr %2, align 8
  %3 = load ptr, ptr %2, align 8
  %4 = getelementptr inbounds %"struct.std::_Vector_base.72", ptr %3, i32 0, i32 0
  %5 = getelementptr inbounds %"struct.std::_Vector_base<char, std::allocator<char>>::_Vector_impl_data", ptr %4, i32 0, i32 1
  %6 = load ptr, ptr %5, align 8
  %7 = getelementptr inbounds %"struct.std::_Vector_base.72", ptr %3, i32 0, i32 0
  %8 = getelementptr inbounds %"struct.std::_Vector_base<char, std::allocator<char>>::_Vector_impl_data", ptr %7, i32 0, i32 0
  %9 = load ptr, ptr %8, align 8
  %10 = ptrtoint ptr %6 to i64
  %11 = ptrtoint ptr %9 to i64
  %12 = sub i64 %10, %11
  ret i64 %12
}

; Function Attrs: mustprogress nounwind uwtable
define linkonce_odr void @_ZN3gmx12ArrayRefIterIKcEC2EPS1_(ptr noundef nonnull align 8 dereferenceable(8) %0, ptr noundef %1) unnamed_addr #3 comdat align 2 {
  %3 = alloca ptr, align 8
  %4 = alloca ptr, align 8
  store ptr %0, ptr %3, align 8
  store ptr %1, ptr %4, align 8
  %5 = load ptr, ptr %3, align 8
  %6 = getelementptr inbounds %"struct.gmx::ArrayRefIter.338", ptr %5, i32 0, i32 0
  %7 = load ptr, ptr %4, align 8
  store ptr %7, ptr %6, align 8
  ret void
}

; Function Attrs: mustprogress nounwind uwtable
define linkonce_odr noundef ptr @_ZNSt6vectorIcSaIcEE4dataEv(ptr noundef nonnull align 8 dereferenceable(24) %0) #3 comdat align 2 {
  %2 = alloca ptr, align 8
  store ptr %0, ptr %2, align 8
  %3 = load ptr, ptr %2, align 8
  %4 = getelementptr inbounds %"struct.std::_Vector_base.72", ptr %3, i32 0, i32 0
  %5 = getelementptr inbounds %"struct.std::_Vector_base<char, std::allocator<char>>::_Vector_impl_data", ptr %4, i32 0, i32 0
  %6 = load ptr, ptr %5, align 8
  %7 = call noundef ptr @_ZNKSt6vectorIcSaIcEE11_M_data_ptrIcEEPT_S4_(ptr noundef nonnull align 8 dereferenceable(24) %3, ptr noundef %6) #4
  ret ptr %7
}

; Function Attrs: mustprogress nounwind uwtable
define linkonce_odr void @_ZN3gmx8ArrayRefIKcEC2IRSt6vectorIcSaIcEEvEEOT_(ptr noundef nonnull align 8 dereferenceable(16) %0, ptr noundef nonnull align 8 dereferenceable(24) %1) unnamed_addr #3 comdat align 2 {
  %3 = alloca ptr, align 8
  %4 = alloca ptr, align 8
  store ptr %0, ptr %3, align 8
  store ptr %1, ptr %4, align 8
  %5 = load ptr, ptr %3, align 8
  %6 = getelementptr inbounds %"class.gmx::ArrayRef.337", ptr %5, i32 0, i32 0
  %7 = load ptr, ptr %4, align 8
  %8 = call noundef ptr @_ZNSt6vectorIcSaIcEE4dataEv(ptr noundef nonnull align 8 dereferenceable(24) %7) #4
  call void @_ZN3gmx12ArrayRefIterIKcEC2EPS1_(ptr noundef nonnull align 8 dereferenceable(8) %6, ptr noundef %8) #4
  %9 = getelementptr inbounds %"class.gmx::ArrayRef.337", ptr %5, i32 0, i32 1
  %10 = load ptr, ptr %4, align 8
  %11 = call noundef ptr @_ZNSt6vectorIcSaIcEE4dataEv(ptr noundef nonnull align 8 dereferenceable(24) %10) #4
  %12 = load ptr, ptr %4, align 8
  %13 = call noundef i64 @_ZNKSt6vectorIcSaIcEE4sizeEv(ptr noundef nonnull align 8 dereferenceable(24) %12) #4
  %14 = getelementptr inbounds i8, ptr %11, i64 %13
  call void @_ZN3gmx12ArrayRefIterIKcEC2EPS1_(ptr noundef nonnull align 8 dereferenceable(8) %9, ptr noundef %14) #4
  ret void
}

; Function Attrs: mustprogress uwtable
define noundef i32 @_Z26completeTprDeserializationP26PartialDeserializedTprFileP10t_inputrecP7t_statePA3_fS6_P10gmx_mtop_t(ptr noundef %0, ptr noundef %1, ptr noundef %2, ptr noundef %3, ptr noundef %4, ptr noundef %5) #2 personality ptr @__gxx_personality_v0 {
  %7 = alloca ptr, align 8
  %8 = alloca ptr, align 8
  %9 = alloca ptr, align 8
  %10 = alloca ptr, align 8
  %11 = alloca ptr, align 8
  %12 = alloca ptr, align 8
  %13 = alloca %"class.gmx::InMemoryDeserializer", align 8
  %14 = alloca %"class.gmx::ArrayRef.337", align 8
  %15 = alloca ptr, align 8
  %16 = alloca i32, align 4
  store ptr %0, ptr %7, align 8
  store ptr %1, ptr %8, align 8
  store ptr %2, ptr %9, align 8
  store ptr %3, ptr %10, align 8
  store ptr %4, ptr %11, align 8
  store ptr %5, ptr %12, align 8
  %17 = load ptr, ptr %7, align 8
  %18 = getelementptr inbounds %struct.PartialDeserializedTprFile, ptr %17, i32 0, i32 1
  call void @_ZN3gmx8ArrayRefIKcEC2IRSt6vectorIcSaIcEEvEEOT_(ptr noundef nonnull align 8 dereferenceable(16) %14, ptr noundef nonnull align 8 dereferenceable(24) %18)
  %19 = load ptr, ptr %7, align 8
  %20 = getelementptr inbounds %struct.PartialDeserializedTprFile, ptr %19, i32 0, i32 0
  %21 = getelementptr inbounds %struct.TpxFileHeader, ptr %20, i32 0, i32 14
  %22 = load i8, ptr %21, align 8
  %23 = trunc i8 %22 to i1
  %24 = getelementptr inbounds { ptr, ptr }, ptr %14, i32 0, i32 0
  %25 = load ptr, ptr %24, align 8
  %26 = getelementptr inbounds { ptr, ptr }, ptr %14, i32 0, i32 1
  %27 = load ptr, ptr %26, align 8
  call void @_ZN3gmx20InMemoryDeserializerC1ENS_8ArrayRefIKcEEbNS_18EndianSwapBehaviorE(ptr noundef nonnull align 8 dereferenceable(16) %13, ptr %25, ptr %27, i1 noundef zeroext %23, i32 noundef 3)
  %28 = load ptr, ptr %7, align 8
  %29 = getelementptr inbounds %struct.PartialDeserializedTprFile, ptr %28, i32 0, i32 0
  %30 = load ptr, ptr %8, align 8
  %31 = load ptr, ptr %9, align 8
  %32 = load ptr, ptr %10, align 8
  %33 = load ptr, ptr %11, align 8
  %34 = load ptr, ptr %12, align 8
  %35 = invoke noundef i32 @_ZL11do_tpx_bodyPN3gmx11ISerializerEP13TpxFileHeaderP10t_inputrecP7t_statePA3_fS9_P10gmx_mtop_t(ptr noundef %13, ptr noundef %29, ptr noundef %30, ptr noundef %31, ptr noundef %32, ptr noundef %33, ptr noundef %34)
          to label %36 unwind label %37

36:                                               ; preds = %6
  call void @_ZN3gmx20InMemoryDeserializerD1Ev(ptr noundef nonnull align 8 dereferenceable(16) %13) #4
  ret i32 %35

37:                                               ; preds = %6
  %38 = landingpad { ptr, i32 }
          cleanup
  %39 = extractvalue { ptr, i32 } %38, 0
  store ptr %39, ptr %15, align 8
  %40 = extractvalue { ptr, i32 } %38, 1
  store i32 %40, ptr %16, align 4
  call void @_ZN3gmx20InMemoryDeserializerD1Ev(ptr noundef nonnull align 8 dereferenceable(16) %13) #4
  br label %41

41:                                               ; preds = %37
  %42 = load ptr, ptr %15, align 8
  %43 = load i32, ptr %16, align 4
  %44 = insertvalue { ptr, i32 } poison, ptr %42, 0
  %45 = insertvalue { ptr, i32 } %44, i32 %43, 1
  resume { ptr, i32 } %45
}

; Function Attrs: mustprogress uwtable
define noundef i32 @_Z26completeTprDeserializationP26PartialDeserializedTprFileP10t_inputrecP10gmx_mtop_t(ptr noundef %0, ptr noundef %1, ptr noundef %2) #2 {
  %4 = alloca ptr, align 8
  %5 = alloca ptr, align 8
  %6 = alloca ptr, align 8
  store ptr %0, ptr %4, align 8
  store ptr %1, ptr %5, align 8
  store ptr %2, ptr %6, align 8
  %7 = load ptr, ptr %4, align 8
  %8 = load ptr, ptr %5, align 8
  %9 = load ptr, ptr %6, align 8
  %10 = call noundef i32 @_Z26completeTprDeserializationP26PartialDeserializedTprFileP10t_inputrecP7t_statePA3_fS6_P10gmx_mtop_t(ptr noundef %7, ptr noundef %8, ptr noundef null, ptr noundef null, ptr noundef null, ptr noundef %9)
  ret i32 %10
}