; Function Attrs: mustprogress uwtable
define noundef i32 @_Z26completeTprDeserializationP26PartialDeserializedTprFileP10t_inputrecP10gmx_mtop_t(ptr nocapture noundef readonly %0, ptr noundef %1, ptr noundef %2) local_unnamed_addr #5 personality ptr @__gxx_personality_v0 {
  %4 = alloca %"class.gmx::InMemoryDeserializer", align 8
  call void @llvm.lifetime.start.p0(i64 16, ptr nonnull %4)
  %5 = getelementptr inbounds i8, ptr %0, i64 48
  %6 = load ptr, ptr %5, align 8
  %7 = getelementptr inbounds i8, ptr %0, i64 56
  %8 = load ptr, ptr %7, align 8
  %9 = ptrtoint ptr %8 to i64
  %10 = ptrtoint ptr %6 to i64
  %11 = sub i64 %9, %10
  %12 = getelementptr inbounds i8, ptr %6, i64 %11
  %13 = getelementptr inbounds i8, ptr %0, i64 40
  %14 = load i8, ptr %13, align 8
  %15 = trunc i8 %14 to i1
  call void @_ZN3gmx20InMemoryDeserializerC1ENS_8ArrayRefIKcEEbNS_18EndianSwapBehaviorE(ptr noundef nonnull align 8 dereferenceable(16) %4, ptr %6, ptr %12, i1 noundef zeroext %15, i32 noundef 3)
  %16 = invoke fastcc noundef i32 @_ZL11do_tpx_bodyPN3gmx11ISerializerEP13TpxFileHeaderP10t_inputrecP7t_statePA3_fS9_P10gmx_mtop_t(ptr noundef nonnull %4, ptr noundef nonnull %0, ptr noundef %1, ptr noundef null, ptr noundef null, ptr noundef null, ptr noundef %2)
          to label %_Z26completeTprDeserializationP26PartialDeserializedTprFileP10t_inputrecP7t_statePA3_fS6_P10gmx_mtop_t.exit unwind label %17

17:                                               ; preds = %3
  %18 = landingpad { ptr, i32 }
          cleanup
  call void @_ZN3gmx20InMemoryDeserializerD1Ev(ptr noundef nonnull align 8 dereferenceable(16) %4) #22
  resume { ptr, i32 } %18

_Z26completeTprDeserializationP26PartialDeserializedTprFileP10t_inputrecP7t_statePA3_fS6_P10gmx_mtop_t.exit: ; preds = %3
  call void @_ZN3gmx20InMemoryDeserializerD1Ev(ptr noundef nonnull align 8 dereferenceable(16) %4) #22
  call void @llvm.lifetime.end.p0(i64 16, ptr nonnull %4)
  ret i32 %16
}